; Function Attrs: nounwind uwtable
define range(i32 -1, 1) i32 @H5C_unsettle_ring(ptr nocapture noundef readonly %0, i32 noundef %1) local_unnamed_addr #0 {
  %3 = getelementptr inbounds i8, ptr %0, i64 16
  %4 = load ptr, ptr %3, align 8
  %5 = getelementptr inbounds i8, ptr %4, i64 112
  %6 = load ptr, ptr %5, align 8
  switch i32 %1, label %33 [
    i32 2, label %7
    i32 3, label %20
  ]

7:                                                ; preds = %2
  %8 = getelementptr inbounds i8, ptr %6, i64 527720
  %9 = load i8, ptr %8, align 8
  %10 = trunc i8 %9 to i1
  br i1 %10, label %11, label %33

11:                                               ; preds = %7
  %12 = getelementptr inbounds i8, ptr %6, i64 81
  %13 = load i8, ptr %12, align 1
  %14 = trunc i8 %13 to i1
  br i1 %14, label %15, label %19

15:                                               ; preds = %11
  %16 = load i64, ptr @H5E_CACHE_g, align 8
  %17 = load i64, ptr @H5E_SYSTEM_g, align 8
  %18 = tail call i32 (ptr, ptr, i32, i64, i64, ptr, ...) @H5E_printf_stack(ptr noundef nonnull @.str.1, ptr noundef nonnull @__func__.H5C_unsettle_ring, i32 noundef 1167, i64 noundef %16, i64 noundef %17, ptr noundef nonnull @.str.38) #8
  br label %33

19:                                               ; preds = %11
  store i8 0, ptr %8, align 8
  br label %33

20:                                               ; preds = %2
  %21 = getelementptr inbounds i8, ptr %6, i64 527721
  %22 = load i8, ptr %21, align 1
  %23 = trunc i8 %22 to i1
  br i1 %23, label %24, label %33

24:                                               ; preds = %20
  %25 = getelementptr inbounds i8, ptr %6, i64 81
  %26 = load i8, ptr %25, align 1
  %27 = trunc i8 %26 to i1
  br i1 %27, label %28, label %32

28:                                               ; preds = %24
  %29 = load i64, ptr @H5E_CACHE_g, align 8
  %30 = load i64, ptr @H5E_SYSTEM_g, align 8
  %31 = tail call i32 (ptr, ptr, i32, i64, i64, ptr, ...) @H5E_printf_stack(ptr noundef nonnull @.str.1, ptr noundef nonnull @__func__.H5C_unsettle_ring, i32 noundef 1175, i64 noundef %29, i64 noundef %30, ptr noundef nonnull @.str.39) #8
  br label %33

32:                                               ; preds = %24
  store i8 0, ptr %21, align 1
  br label %33

33:                                               ; preds = %19, %7, %32, %20, %2, %28, %15
  %.0 = phi i32 [ 0, %2 ], [ -1, %28 ], [ 0, %32 ], [ 0, %20 ], [ -1, %15 ], [ 0, %19 ], [ 0, %7 ]
  ret i32 %.0
}